target datalayout = "e-m:e-p270:32:32-p271:32:32-p272:64:64-i64:64-i128:128-f80:128-n8:16:32:64-S128"
target triple = "x86_64-pc-linux-gnu"

%"class.clang::SourceLocation" = type { i32 }
%"class.clang::SourceRange" = type { %"class.clang::SourceLocation", %"class.clang::SourceLocation" }
%"class.clang::comments::BlockContentComment" = type { %"class.clang::comments::Comment" }
%"class.clang::comments::Comment" = type { %"class.clang::SourceLocation", %"class.clang::SourceRange", %union.anon.121 }
%union.anon.121 = type { %"class.clang::comments::Comment::InlineCommandCommentBitfields" }
%"class.clang::comments::Comment::InlineCommandCommentBitfields" = type { i32 }
%"class.clang::comments::BlockCommandComment" = type { %"class.clang::comments::BlockContentComment", %"class.llvm::ArrayRef.122", ptr }
%"class.llvm::ArrayRef.122" = type { ptr, i64 }

; Function Attrs: mustprogress nounwind uwtable
define linkonce_odr hidden i32 @_ZNK5clang11SourceRange8getBeginEv(ptr noundef nonnull align 4 dereferenceable(8) %0) #0 comdat align 2 {
  %2 = alloca %"class.clang::SourceLocation", align 4
  %3 = alloca ptr, align 8
  store ptr %0, ptr %3, align 8
  %4 = load ptr, ptr %3, align 8
  %5 = getelementptr inbounds nuw %"class.clang::SourceRange", ptr %4, i32 0, i32 0
  call void @llvm.memcpy.p0.p0.i64(ptr align 4 %2, ptr align 4 %5, i64 4, i1 false)
  %6 = getelementptr inbounds nuw %"class.clang::SourceLocation", ptr %2, i32 0, i32 0
  %7 = load i32, ptr %6, align 4
  ret i32 %7
}

; Function Attrs: mustprogress nounwind uwtable
define linkonce_odr hidden i32 @_ZNK5clang11SourceRange6getEndEv(ptr noundef nonnull align 4 dereferenceable(8) %0) #0 comdat align 2 {
  %2 = alloca %"class.clang::SourceLocation", align 4
  %3 = alloca ptr, align 8
  store ptr %0, ptr %3, align 8
  %4 = load ptr, ptr %3, align 8
  %5 = getelementptr inbounds nuw %"class.clang::SourceRange", ptr %4, i32 0, i32 1
  call void @llvm.memcpy.p0.p0.i64(ptr align 4 %2, ptr align 4 %5, i64 4, i1 false)
  %6 = getelementptr inbounds nuw %"class.clang::SourceLocation", ptr %2, i32 0, i32 0
  %7 = load i32, ptr %6, align 4
  ret i32 %7
}

; Function Attrs: mustprogress nounwind uwtable
define linkonce_odr hidden void @_ZN5clang8comments7Comment14setSourceRangeENS_11SourceRangeE(ptr noundef nonnull align 4 dereferenceable(16) %0, i64 %1) #0 comdat align 2 {
  %3 = alloca %"class.clang::SourceRange", align 4
  %4 = alloca ptr, align 8
  store i64 %1, ptr %3, align 4
  store ptr %0, ptr %4, align 8
  %5 = load ptr, ptr %4, align 8
  %6 = getelementptr inbounds nuw %"class.clang::comments::Comment", ptr %5, i32 0, i32 1
  call void @llvm.memcpy.p0.p0.i64(ptr align 4 %6, ptr align 4 %3, i64 8, i1 false)
  ret void
}

; Function Attrs: mustprogress nounwind uwtable
define linkonce_odr hidden void @_ZN5clang11SourceRangeC2ENS_14SourceLocationES1_(ptr noundef nonnull align 4 dereferenceable(8) %0, i32 %1, i32 %2) unnamed_addr #0 comdat align 2 {
  %4 = alloca %"class.clang::SourceLocation", align 4
  %5 = alloca %"class.clang::SourceLocation", align 4
  %6 = alloca ptr, align 8
  %7 = getelementptr inbounds nuw %"class.clang::SourceLocation", ptr %4, i32 0, i32 0
  store i32 %1, ptr %7, align 4
  %8 = getelementptr inbounds nuw %"class.clang::SourceLocation", ptr %5, i32 0, i32 0
  store i32 %2, ptr %8, align 4
  store ptr %0, ptr %6, align 8
  %9 = load ptr, ptr %6, align 8
  %10 = getelementptr inbounds nuw %"class.clang::SourceRange", ptr %9, i32 0, i32 0
  call void @llvm.memcpy.p0.p0.i64(ptr align 4 %10, ptr align 4 %4, i64 4, i1 false)
  %11 = getelementptr inbounds nuw %"class.clang::SourceRange", ptr %9, i32 0, i32 1
  call void @llvm.memcpy.p0.p0.i64(ptr align 4 %11, ptr align 4 %5, i64 4, i1 false)
  ret void
}

; Function Attrs: mustprogress nounwind willreturn memory(read) uwtable
define linkonce_odr hidden i32 @_ZNK5clang8comments7Comment11getBeginLocEv(ptr noundef nonnull align 4 dereferenceable(16) %0) #2 comdat align 2 {
  %2 = alloca %"class.clang::SourceLocation", align 4
  %3 = alloca ptr, align 8
  store ptr %0, ptr %3, align 8
  %4 = load ptr, ptr %3, align 8
  %5 = getelementptr inbounds nuw %"class.clang::comments::Comment", ptr %4, i32 0, i32 1
  %6 = call i32 @_ZNK5clang11SourceRange8getBeginEv(ptr noundef nonnull align 4 dereferenceable(8) %5)
  %7 = getelementptr inbounds nuw %"class.clang::SourceLocation", ptr %2, i32 0, i32 0
  store i32 %6, ptr %7, align 4
  %8 = getelementptr inbounds nuw %"class.clang::SourceLocation", ptr %2, i32 0, i32 0
  %9 = load i32, ptr %8, align 4
  ret i32 %9
}

; Function Attrs: mustprogress nounwind uwtable
define linkonce_odr hidden noundef zeroext i1 @_ZNK5clang14SourceLocation7isValidEv(ptr noundef nonnull align 4 dereferenceable(4) %0) #0 comdat align 2 {
  %2 = alloca ptr, align 8
  store ptr %0, ptr %2, align 8
  %3 = load ptr, ptr %2, align 8
  %4 = getelementptr inbounds nuw %"class.clang::SourceLocation", ptr %3, i32 0, i32 0
  %5 = load i32, ptr %4, align 4
  %6 = icmp ne i32 %5, 0
  ret i1 %6
}

; Function Attrs: mustprogress nounwind willreturn memory(read) uwtable
define linkonce_odr hidden i32 @_ZNK5clang8comments7Comment9getEndLocEv(ptr noundef nonnull align 4 dereferenceable(16) %0) #2 comdat align 2 {
  %2 = alloca %"class.clang::SourceLocation", align 4
  %3 = alloca ptr, align 8
  store ptr %0, ptr %3, align 8
  %4 = load ptr, ptr %3, align 8
  %5 = getelementptr inbounds nuw %"class.clang::comments::Comment", ptr %4, i32 0, i32 1
  %6 = call i32 @_ZNK5clang11SourceRange6getEndEv(ptr noundef nonnull align 4 dereferenceable(8) %5)
  %7 = getelementptr inbounds nuw %"class.clang::SourceLocation", ptr %2, i32 0, i32 0
  store i32 %6, ptr %7, align 4
  %8 = getelementptr inbounds nuw %"class.clang::SourceLocation", ptr %2, i32 0, i32 0
  %9 = load i32, ptr %8, align 4
  ret i32 %9
}

; Function Attrs: mustprogress nounwind uwtable
define linkonce_odr hidden void @_ZN5clang8comments19BlockCommandComment12setParagraphEPNS0_16ParagraphCommentE(ptr noundef nonnull align 8 dereferenceable(40) %0, ptr noundef %1) #0 comdat align 2 {
  %3 = alloca ptr, align 8
  %4 = alloca ptr, align 8
  %5 = alloca %"class.clang::SourceLocation", align 4
  %6 = alloca %"class.clang::SourceRange", align 4
  %7 = alloca %"class.clang::SourceLocation", align 4
  %8 = alloca %"class.clang::SourceLocation", align 4
  store ptr %0, ptr %3, align 8
  store ptr %1, ptr %4, align 8
  %9 = load ptr, ptr %3, align 8
  %10 = load ptr, ptr %4, align 8
  %11 = getelementptr inbounds nuw %"class.clang::comments::BlockCommandComment", ptr %9, i32 0, i32 2
  store ptr %10, ptr %11, align 8
  %12 = load ptr, ptr %4, align 8
  %13 = call i32 @_ZNK5clang8comments7Comment9getEndLocEv(ptr noundef nonnull align 4 dereferenceable(16) %12) #11
  %14 = getelementptr inbounds nuw %"class.clang::SourceLocation", ptr %5, i32 0, i32 0
  store i32 %13, ptr %14, align 4
  %15 = call noundef zeroext i1 @_ZNK5clang14SourceLocation7isValidEv(ptr noundef nonnull align 4 dereferenceable(4) %5)
  br i1 %15, label %16, label %24

16:                                               ; preds = %2
  %17 = call i32 @_ZNK5clang8comments7Comment11getBeginLocEv(ptr noundef nonnull align 4 dereferenceable(16) %9) #11
  %18 = getelementptr inbounds nuw %"class.clang::SourceLocation", ptr %7, i32 0, i32 0
  store i32 %17, ptr %18, align 4
  call void @llvm.memcpy.p0.p0.i64(ptr align 4 %8, ptr align 4 %5, i64 4, i1 false)
  %19 = getelementptr inbounds nuw %"class.clang::SourceLocation", ptr %7, i32 0, i32 0
  %20 = load i32, ptr %19, align 4
  %21 = getelementptr inbounds nuw %"class.clang::SourceLocation", ptr %8, i32 0, i32 0
  %22 = load i32, ptr %21, align 4
  call void @_ZN5clang11SourceRangeC2ENS_14SourceLocationES1_(ptr noundef nonnull align 4 dereferenceable(8) %6, i32 %20, i32 %22)
  %23 = load i64, ptr %6, align 4
  call void @_ZN5clang8comments7Comment14setSourceRangeENS_11SourceRangeE(ptr noundef nonnull align 4 dereferenceable(16) %9, i64 %23)
  br label %24

24:                                               ; preds = %16, %2
  ret void
}

; Function Attrs: mustprogress nounwind uwtable
define dso_local void @_ZN5clang8comments4Sema23actOnParamCommandFinishEPNS0_19ParamCommandCommentEPNS0_16ParagraphCommentE(ptr noundef nonnull align 8 dereferenceable(168) %0, ptr noundef %1, ptr noundef %2) #0 align 2 {
  %4 = alloca ptr, align 8
  %5 = alloca ptr, align 8
  %6 = alloca ptr, align 8
  store ptr %0, ptr %4, align 8
  store ptr %1, ptr %5, align 8
  store ptr %2, ptr %6, align 8
  %7 = load ptr, ptr %4, align 8
  %8 = load ptr, ptr %5, align 8
  %9 = load ptr, ptr %6, align 8
  call void @_ZN5clang8comments19BlockCommandComment12setParagraphEPNS0_16ParagraphCommentE(ptr noundef nonnull align 8 dereferenceable(40) %8, ptr noundef %9)
  %10 = load ptr, ptr %5, align 8
  call void @_ZN5clang8comments4Sema31checkBlockCommandEmptyParagraphEPNS0_19BlockCommandCommentE(ptr noundef nonnull align 8 dereferenceable(168) %7, ptr noundef %10)
  ret void
}